target datalayout = "e-m:e-p270:32:32-p271:32:32-p272:64:64-i64:64-i128:128-f80:128-n8:16:32:64-S128"
target triple = "x86_64-pc-linux-gnu"

%class.ExpressionAssign = type { %class.Expression, ptr }
%class.Expression = type { ptr, i32, i32, ptr }
%class.StatementAssign = type { %class.Statement, i32, ptr, ptr, ptr, ptr, %"class.std::__cxx11::basic_string", %"class.std::__cxx11::basic_string" }
%class.Statement = type { ptr, i32, i32, ptr, ptr }
%"class.std::__cxx11::basic_string" = type { %"struct.std::__cxx11::basic_string<char>::_Alloc_hider", i64, %union.anon }
%"struct.std::__cxx11::basic_string<char>::_Alloc_hider" = type { ptr }
%union.anon = type { i64, [8 x i8] }

; Function Attrs: mustprogress nounwind uwtable
define linkonce_odr dso_local noundef ptr @_ZNK15StatementAssign8get_exprEv(ptr noundef nonnull align 8 dereferenceable(136) %0) #7 comdat align 2 {
  %2 = alloca ptr, align 8
  store ptr %0, ptr %2, align 8
  %3 = load ptr, ptr %2, align 8
  %4 = getelementptr inbounds %class.StatementAssign, ptr %3, i32 0, i32 3
  %5 = load ptr, ptr %4, align 8
  ret ptr %5
}

; Function Attrs: mustprogress nounwind uwtable
define linkonce_odr dso_local noundef ptr @_ZNK15StatementAssign7get_lhsEv(ptr noundef nonnull align 8 dereferenceable(136) %0) #7 comdat align 2 {
  %2 = alloca ptr, align 8
  store ptr %0, ptr %2, align 8
  %3 = load ptr, ptr %2, align 8
  %4 = getelementptr inbounds %class.StatementAssign, ptr %3, i32 0, i32 2
  %5 = load ptr, ptr %4, align 8
  ret ptr %5
}

; Function Attrs: mustprogress uwtable
define dso_local noundef zeroext i1 @_ZNK16ExpressionAssign7use_varEPK8Variable(ptr noundef nonnull align 8 dereferenceable(32) %0, ptr noundef %1) unnamed_addr #4 align 2 {
  %3 = alloca i1, align 1
  %4 = alloca ptr, align 8
  %5 = alloca ptr, align 8
  store ptr %0, ptr %4, align 8
  store ptr %1, ptr %5, align 8
  %6 = load ptr, ptr %4, align 8
  %7 = getelementptr inbounds %class.ExpressionAssign, ptr %6, i32 0, i32 1
  %8 = load ptr, ptr %7, align 8
  %9 = call noundef ptr @_ZNK15StatementAssign7get_lhsEv(ptr noundef nonnull align 8 dereferenceable(136) %8)
  %10 = load ptr, ptr %5, align 8
  %11 = load ptr, ptr %9, align 8
  %12 = getelementptr inbounds ptr, ptr %11, i64 17
  %13 = load ptr, ptr %12, align 8
  %14 = call noundef zeroext i1 %13(ptr noundef nonnull align 8 dereferenceable(24) %9, ptr noundef %10)
  br i1 %14, label %24, label %15

15:                                               ; preds = %2
  %16 = getelementptr inbounds %class.ExpressionAssign, ptr %6, i32 0, i32 1
  %17 = load ptr, ptr %16, align 8
  %18 = call noundef ptr @_ZNK15StatementAssign8get_exprEv(ptr noundef nonnull align 8 dereferenceable(136) %17)
  %19 = load ptr, ptr %5, align 8
  %20 = load ptr, ptr %18, align 8
  %21 = getelementptr inbounds ptr, ptr %20, i64 17
  %22 = load ptr, ptr %21, align 8
  %23 = call noundef zeroext i1 %22(ptr noundef nonnull align 8 dereferenceable(24) %18, ptr noundef %19)
  br i1 %23, label %24, label %25

24:                                               ; preds = %15, %2
  store i1 true, ptr %3, align 1
  br label %26

25:                                               ; preds = %15
  store i1 false, ptr %3, align 1
  br label %26

26:                                               ; preds = %25, %24
  %27 = load i1, ptr %3, align 1
  ret i1 %27
}